; ModuleID = '40/1826.c'
source_filename = "40/1826.c"
target datalayout = "e-m:e-p270:32:32-p271:32:32-p272:64:64-i64:64-f80:128-n8:16:32:64-S128"
target triple = "x86_64-pc-linux-gnu"

@__const.main.x = private unnamed_addr constant [14 x i8] c"Invalid input\00", align 1
@.str = private unnamed_addr constant [4 x i8] c"%lf\00", align 1
@.str.1 = private unnamed_addr constant [6 x i8] c"%.4lf\00", align 1

; Function Attrs: noinline nounwind uwtable
define dso_local void @main() #0 {
  %1 = alloca double, align 8
  %2 = alloca double, align 8
  %3 = alloca double, align 8
  %4 = alloca double, align 8
  %5 = alloca double, align 8
  %6 = alloca double, align 8
  %7 = alloca [14 x i8], align 1
  %8 = bitcast [14 x i8]* %7 to i8*
  call void @llvm.memcpy.p0i8.p0i8.i64(i8* align 1 %8, i8* align 1 getelementptr inbounds ([14 x i8], [14 x i8]* @__const.main.x, i32 0, i32 0), i64 14, i1 false)
  %9 = call i32 (i8*, ...) @__isoc99_scanf(i8* getelementptr inbounds ([4 x i8], [4 x i8]* @.str, i64 0, i64 0), double* %1)
  %10 = call i32 (i8*, ...) @__isoc99_scanf(i8* getelementptr inbounds ([4 x i8], [4 x i8]* @.str, i64 0, i64 0), double* %2)
  %11 = call i32 (i8*, ...) @__isoc99_scanf(i8* getelementptr inbounds ([4 x i8], [4 x i8]* @.str, i64 0, i64 0), double* %3)
  %12 = call i32 (i8*, ...) @__isoc99_scanf(i8* getelementptr inbounds ([4 x i8], [4 x i8]* @.str, i64 0, i64 0), double* %4)
  %13 = call i32 (i8*, ...) @__isoc99_scanf(i8* getelementptr inbounds ([4 x i8], [4 x i8]* @.str, i64 0, i64 0), double* %5)
  %14 = load double, double* %1, align 8
  %15 = load double, double* %2, align 8
  %16 = load double, double* %3, align 8
  %17 = load double, double* %4, align 8
  %18 = load double, double* %5, align 8
  %19 = call double @f(double %14, double %15, double %16, double %17, double %18)
  store double %19, double* %6, align 8
  %20 = load double, double* %6, align 8
  %21 = fcmp olt double %20, 0.000000e+00
  br i1 %21, label %22, label %25

22:                                               ; preds = %0
  %23 = getelementptr inbounds [14 x i8], [14 x i8]* %7, i64 0, i64 0
  %24 = call i32 @puts(i8* %23)
  br label %28

25:                                               ; preds = %0
  %26 = load double, double* %6, align 8
  %27 = call i32 (i8*, ...) @printf(i8* getelementptr inbounds ([6 x i8], [6 x i8]* @.str.1, i64 0, i64 0), double %26)
  br label %28

28:                                               ; preds = %25, %22
  ret void
}

; Function Attrs: argmemonly nounwind willreturn
declare void @llvm.memcpy.p0i8.p0i8.i64(i8* noalias nocapture writeonly, i8* noalias nocapture readonly, i64, i1 immarg) #1

declare dso_local i32 @__isoc99_scanf(i8*, ...) #2

; Function Attrs: noinline nounwind uwtable
define dso_local double @f(double %0, double %1, double %2, double %3, double %4) #0 {
  %6 = alloca double, align 8
  %7 = alloca double, align 8
  %8 = alloca double, align 8
  %9 = alloca double, align 8
  %10 = alloca double, align 8
  %11 = alloca double, align 8
  %12 = alloca double, align 8
  %13 = alloca double, align 8
  store double %0, double* %7, align 8
  store double %1, double* %8, align 8
  store double %2, double* %9, align 8
  store double %3, double* %10, align 8
  store double %4, double* %11, align 8
  %14 = load double, double* %11, align 8
  %15 = fdiv double %14, 1.800000e+02
  %16 = fmul double %15, 1.000000e+02
  store double %16, double* %11, align 8
  %17 = load double, double* %7, align 8
  %18 = load double, double* %8, align 8
  %19 = fadd double %17, %18
  %20 = load double, double* %9, align 8
  %21 = fadd double %19, %20
  %22 = load double, double* %10, align 8
  %23 = fadd double %21, %22
  %24 = fdiv double %23, 2.000000e+00
  store double %24, double* %13, align 8
  %25 = load double, double* %13, align 8
  %26 = load double, double* %7, align 8
  %27 = fsub double %25, %26
  %28 = load double, double* %13, align 8
  %29 = load double, double* %8, align 8
  %30 = fsub double %28, %29
  %31 = fmul double %27, %30
  %32 = load double, double* %13, align 8
  %33 = load double, double* %9, align 8
  %34 = fsub double %32, %33
  %35 = fmul double %31, %34
  %36 = load double, double* %13, align 8
  %37 = load double, double* %10, align 8
  %38 = fsub double %36, %37
  %39 = fmul double %35, %38
  %40 = load double, double* %7, align 8
  %41 = load double, double* %8, align 8
  %42 = fmul double %40, %41
  %43 = load double, double* %9, align 8
  %44 = fmul double %42, %43
  %45 = load double, double* %10, align 8
  %46 = fmul double %44, %45
  %47 = load double, double* %11, align 8
  %48 = fdiv double %47, 2.000000e+00
  %49 = call double @cos(double %48) #4
  %50 = fmul double %46, %49
  %51 = load double, double* %11, align 8
  %52 = fdiv double %51, 2.000000e+00
  %53 = call double @cos(double %52) #4
  %54 = fmul double %50, %53
  %55 = fsub double %39, %54
  store double %55, double* %12, align 8
  %56 = load double, double* %12, align 8
  %57 = fcmp oge double %56, 0.000000e+00
  br i1 %57, label %58, label %61

58:                                               ; preds = %5
  %59 = load double, double* %12, align 8
  %60 = call double @sqrt(double %59) #4
  store double %60, double* %6, align 8
  br label %62

61:                                               ; preds = %5
  store double -1.000000e+00, double* %6, align 8
  br label %62

62:                                               ; preds = %61, %58
  %63 = load double, double* %6, align 8
  ret double %63
}

declare dso_local i32 @puts(i8*) #2

declare dso_local i32 @printf(i8*, ...) #2

; Function Attrs: nounwind
declare dso_local double @cos(double) #3

; Function Attrs: nounwind
declare dso_local double @sqrt(double) #3


!llvm.module.flags = !{!0}
!llvm.ident = !{!1}

!0 = !{i32 1, !"wchar_size", i32 4}
!1 = !{!"clang version 10.0.0-4ubuntu1 "}
